target datalayout = "e-m:e-p270:32:32-p271:32:32-p272:64:64-i64:64-i128:128-f80:128-n8:16:32:64-S128"
target triple = "x86_64-unknown-linux-gnu"

%"class.cvc5::internal::theory::arith::linear::RaiseConflict" = type { ptr }
%"class.cvc5::internal::theory::arith::linear::TempVarMalloc" = type { %"class.cvc5::internal::theory::arith::linear::ArithVarMalloc", ptr }
%"class.cvc5::internal::theory::arith::linear::ArithVarMalloc" = type { ptr }
%"class.cvc5::internal::theory::arith::linear::FCSimplexDecisionProcedure" = type { %"class.cvc5::internal::theory::arith::linear::SimplexDecisionProcedure", %"class.cvc5::internal::DenseMultiset", i32, i32, %"class.cvc5::internal::DenseMap.5", i32, i32, i32, %"class.cvc5::internal::DenseMap.4", %"class.std::vector", %"class.cvc5::internal::theory::arith::linear::FCSimplexDecisionProcedure::Statistics" }
%"class.cvc5::internal::theory::arith::linear::SimplexDecisionProcedure" = type { %"class.cvc5::internal::EnvObj", i32, %"class.cvc5::internal::DenseSet", i32, ptr, ptr, ptr, ptr, i32, %"class.cvc5::internal::theory::arith::linear::RaiseConflict", ptr, %"class.cvc5::internal::theory::arith::linear::TempVarMalloc", i32, %"class.cvc5::internal::Rational", %"class.cvc5::internal::Rational", %"class.cvc5::internal::Rational", i64 }
%"class.cvc5::internal::EnvObj" = type { ptr, ptr }
%"class.cvc5::internal::DenseSet" = type { %"class.cvc5::internal::DenseMap" }
%"class.cvc5::internal::DenseMap" = type { %"class.std::vector", %"class.std::vector", %"class.std::vector.0" }
%"class.std::vector.0" = type { %"struct.std::_Bvector_base" }
%"struct.std::_Bvector_base" = type { %"struct.std::_Bvector_base<std::allocator<bool>>::_Bvector_impl" }
%"struct.std::_Bvector_base<std::allocator<bool>>::_Bvector_impl" = type { %"struct.std::_Bvector_base<std::allocator<bool>>::_Bvector_impl_data" }
%"struct.std::_Bvector_base<std::allocator<bool>>::_Bvector_impl_data" = type { %"struct.std::_Bit_iterator", %"struct.std::_Bit_iterator", ptr }
%"struct.std::_Bit_iterator" = type { %"struct.std::_Bit_iterator_base.base", [4 x i8] }
%"struct.std::_Bit_iterator_base.base" = type <{ ptr, i32 }>
%"class.cvc5::internal::Rational" = type { %class.__gmp_expr }
%class.__gmp_expr = type { [1 x %struct.__mpq_struct] }
%struct.__mpq_struct = type { %struct.__mpz_struct, %struct.__mpz_struct }
%struct.__mpz_struct = type { i32, i32, ptr }
%"class.cvc5::internal::DenseMultiset" = type { %"class.cvc5::internal::DenseMap.4" }
%"class.cvc5::internal::DenseMap.5" = type { %"class.std::vector", %"class.std::vector", %"class.std::vector.6" }
%"class.std::vector.6" = type { %"struct.std::_Vector_base.7" }
%"struct.std::_Vector_base.7" = type { %"struct.std::_Vector_base<const cvc5::internal::Rational *, std::allocator<const cvc5::internal::Rational *>>::_Vector_impl" }
%"struct.std::_Vector_base<const cvc5::internal::Rational *, std::allocator<const cvc5::internal::Rational *>>::_Vector_impl" = type { %"struct.std::_Vector_base<const cvc5::internal::Rational *, std::allocator<const cvc5::internal::Rational *>>::_Vector_impl_data" }
%"struct.std::_Vector_base<const cvc5::internal::Rational *, std::allocator<const cvc5::internal::Rational *>>::_Vector_impl_data" = type { ptr, ptr, ptr }
%"class.cvc5::internal::DenseMap.4" = type { %"class.std::vector", %"class.std::vector", %"class.std::vector" }
%"class.std::vector" = type { %"struct.std::_Vector_base" }
%"struct.std::_Vector_base" = type { %"struct.std::_Vector_base<unsigned int, std::allocator<unsigned int>>::_Vector_impl" }
%"struct.std::_Vector_base<unsigned int, std::allocator<unsigned int>>::_Vector_impl" = type { %"struct.std::_Vector_base<unsigned int, std::allocator<unsigned int>>::_Vector_impl_data" }
%"struct.std::_Vector_base<unsigned int, std::allocator<unsigned int>>::_Vector_impl_data" = type { ptr, ptr, ptr }
%"class.cvc5::internal::theory::arith::linear::FCSimplexDecisionProcedure::Statistics" = type { %"class.cvc5::internal::TimerStat", %"class.cvc5::internal::IntStat", %"class.cvc5::internal::IntStat", %"class.cvc5::internal::IntStat", %"class.cvc5::internal::IntStat", %"class.cvc5::internal::TimerStat", %"class.cvc5::internal::TimerStat", %"class.cvc5::internal::TimerStat", %"class.cvc5::internal::TimerStat", %"class.cvc5::internal::ReferenceStat" }
%"class.cvc5::internal::IntStat" = type { %"class.cvc5::internal::ValueStat" }
%"class.cvc5::internal::ValueStat" = type { ptr }
%"class.cvc5::internal::TimerStat" = type { ptr }
%"class.cvc5::internal::ReferenceStat" = type { ptr }
%"class.__gnu_cxx::__normal_iterator.322" = type { ptr }

@.str.27 = private unnamed_addr constant [9 x i8] c"dropped \00", align 1
@.str.49 = private unnamed_addr constant [7 x i8] c"DLV() \00", align 1
@.str.50 = private unnamed_addr constant [15 x i8] c"found conflict\00", align 1
@.str.51 = private unnamed_addr constant [15 x i8] c"focus improved\00", align 1
@.str.52 = private unnamed_addr constant [13 x i8] c"focus shrank\00", align 1
@.str.53 = private unnamed_addr constant [17 x i8] c"bland degenerate\00", align 1
@.str.54 = private unnamed_addr constant [21 x i8] c"heuristic degenerate\00", align 1
@.str.55 = private unnamed_addr constant [11 x i8] c"focus blur\00", align 1

; Function Attrs: mustprogress nounwind uwtable
define linkonce_odr hidden noundef nonnull align 8 dereferenceable(8) ptr @_ZNK9__gnu_cxx17__normal_iteratorIPKjSt6vectorIjSaIjEEE4baseEv(ptr noundef nonnull align 8 dereferenceable(8) %this) #6 comdat align 2 {
entry:
  %this.addr = alloca ptr, align 8
  store ptr %this, ptr %this.addr, align 8
  %this1 = load ptr, ptr %this.addr, align 8
  %_M_current = getelementptr inbounds %"class.__gnu_cxx::__normal_iterator.322", ptr %this1, i32 0, i32 0
  ret ptr %_M_current
}

; Function Attrs: mustprogress nounwind uwtable
define linkonce_odr hidden void @_ZN9__gnu_cxx17__normal_iteratorIPKjSt6vectorIjSaIjEEEC2ERKS2_(ptr noundef nonnull align 8 dereferenceable(8) %this, ptr noundef nonnull align 8 dereferenceable(8) %__i) unnamed_addr #6 comdat align 2 {
entry:
  %this.addr = alloca ptr, align 8
  %__i.addr = alloca ptr, align 8
  store ptr %this, ptr %this.addr, align 8
  store ptr %__i, ptr %__i.addr, align 8
  %this1 = load ptr, ptr %this.addr, align 8
  %_M_current = getelementptr inbounds %"class.__gnu_cxx::__normal_iterator.322", ptr %this1, i32 0, i32 0
  %0 = load ptr, ptr %__i.addr, align 8
  %1 = load ptr, ptr %0, align 8
  store ptr %1, ptr %_M_current, align 8
  ret void
}

; Function Attrs: mustprogress nounwind uwtable
define linkonce_odr noundef zeroext i1 @_ZN9__gnu_cxxeqIPKjSt6vectorIjSaIjEEEEbRKNS_17__normal_iteratorIT_T0_EESB_(ptr noundef nonnull align 8 dereferenceable(8) %__lhs, ptr noundef nonnull align 8 dereferenceable(8) %__rhs) #6 comdat {
entry:
  %__lhs.addr = alloca ptr, align 8
  %__rhs.addr = alloca ptr, align 8
  store ptr %__lhs, ptr %__lhs.addr, align 8
  store ptr %__rhs, ptr %__rhs.addr, align 8
  %0 = load ptr, ptr %__lhs.addr, align 8
  %call = call noundef nonnull align 8 dereferenceable(8) ptr @_ZNK9__gnu_cxx17__normal_iteratorIPKjSt6vectorIjSaIjEEE4baseEv(ptr noundef nonnull align 8 dereferenceable(8) %0) #3
  %1 = load ptr, ptr %call, align 8
  %2 = load ptr, ptr %__rhs.addr, align 8
  %call1 = call noundef nonnull align 8 dereferenceable(8) ptr @_ZNK9__gnu_cxx17__normal_iteratorIPKjSt6vectorIjSaIjEEE4baseEv(ptr noundef nonnull align 8 dereferenceable(8) %2) #3
  %3 = load ptr, ptr %call1, align 8
  %cmp = icmp eq ptr %1, %3
  ret i1 %cmp
}

; Function Attrs: mustprogress nounwind uwtable
define linkonce_odr hidden ptr @_ZNKSt6vectorIjSaIjEE3endEv(ptr noundef nonnull align 8 dereferenceable(24) %this) #6 comdat align 2 {
entry:
  %retval = alloca %"class.__gnu_cxx::__normal_iterator.322", align 8
  %this.addr = alloca ptr, align 8
  store ptr %this, ptr %this.addr, align 8
  %this1 = load ptr, ptr %this.addr, align 8
  %_M_impl = getelementptr inbounds %"struct.std::_Vector_base", ptr %this1, i32 0, i32 0
  %_M_finish = getelementptr inbounds %"struct.std::_Vector_base<unsigned int, std::allocator<unsigned int>>::_Vector_impl_data", ptr %_M_impl, i32 0, i32 1
  call void @_ZN9__gnu_cxx17__normal_iteratorIPKjSt6vectorIjSaIjEEEC2ERKS2_(ptr noundef nonnull align 8 dereferenceable(8) %retval, ptr noundef nonnull align 8 dereferenceable(8) %_M_finish) #3
  %coerce.dive = getelementptr inbounds %"class.__gnu_cxx::__normal_iterator.322", ptr %retval, i32 0, i32 0
  %0 = load ptr, ptr %coerce.dive, align 8
  ret ptr %0
}

; Function Attrs: mustprogress nounwind uwtable
define linkonce_odr hidden ptr @_ZNKSt6vectorIjSaIjEE5beginEv(ptr noundef nonnull align 8 dereferenceable(24) %this) #6 comdat align 2 {
entry:
  %retval = alloca %"class.__gnu_cxx::__normal_iterator.322", align 8
  %this.addr = alloca ptr, align 8
  store ptr %this, ptr %this.addr, align 8
  %this1 = load ptr, ptr %this.addr, align 8
  %_M_impl = getelementptr inbounds %"struct.std::_Vector_base", ptr %this1, i32 0, i32 0
  %_M_start = getelementptr inbounds %"struct.std::_Vector_base<unsigned int, std::allocator<unsigned int>>::_Vector_impl_data", ptr %_M_impl, i32 0, i32 0
  call void @_ZN9__gnu_cxx17__normal_iteratorIPKjSt6vectorIjSaIjEEEC2ERKS2_(ptr noundef nonnull align 8 dereferenceable(8) %retval, ptr noundef nonnull align 8 dereferenceable(8) %_M_start) #3
  %coerce.dive = getelementptr inbounds %"class.__gnu_cxx::__normal_iterator.322", ptr %retval, i32 0, i32 0
  %0 = load ptr, ptr %coerce.dive, align 8
  ret ptr %0
}

; Function Attrs: mustprogress nounwind uwtable
define linkonce_odr hidden noundef zeroext i1 @_ZNKSt6vectorIjSaIjEE5emptyEv(ptr noundef nonnull align 8 dereferenceable(24) %this) #6 comdat align 2 {
entry:
  %this.addr = alloca ptr, align 8
  %ref.tmp = alloca %"class.__gnu_cxx::__normal_iterator.322", align 8
  %ref.tmp2 = alloca %"class.__gnu_cxx::__normal_iterator.322", align 8
  store ptr %this, ptr %this.addr, align 8
  %this1 = load ptr, ptr %this.addr, align 8
  %call = call ptr @_ZNKSt6vectorIjSaIjEE5beginEv(ptr noundef nonnull align 8 dereferenceable(24) %this1) #3
  %coerce.dive = getelementptr inbounds %"class.__gnu_cxx::__normal_iterator.322", ptr %ref.tmp, i32 0, i32 0
  store ptr %call, ptr %coerce.dive, align 8
  %call3 = call ptr @_ZNKSt6vectorIjSaIjEE3endEv(ptr noundef nonnull align 8 dereferenceable(24) %this1) #3
  %coerce.dive4 = getelementptr inbounds %"class.__gnu_cxx::__normal_iterator.322", ptr %ref.tmp2, i32 0, i32 0
  store ptr %call3, ptr %coerce.dive4, align 8
  %call5 = call noundef zeroext i1 @_ZN9__gnu_cxxeqIPKjSt6vectorIjSaIjEEEEbRKNS_17__normal_iteratorIT_T0_EESB_(ptr noundef nonnull align 8 dereferenceable(8) %ref.tmp, ptr noundef nonnull align 8 dereferenceable(8) %ref.tmp2) #3
  ret i1 %call5
}

; Function Attrs: mustprogress nounwind uwtable
define linkonce_odr hidden noundef zeroext i1 @_ZNK4cvc58internal8DenseMapIbE5emptyEv(ptr noundef nonnull align 8 dereferenceable(88) %this) #6 comdat align 2 {
entry:
  %this.addr = alloca ptr, align 8
  store ptr %this, ptr %this.addr, align 8
  %this1 = load ptr, ptr %this.addr, align 8
  %d_list = getelementptr inbounds %"class.cvc5::internal::DenseMap", ptr %this1, i32 0, i32 0
  %call = call noundef zeroext i1 @_ZNKSt6vectorIjSaIjEE5emptyEv(ptr noundef nonnull align 8 dereferenceable(24) %d_list) #3
  ret i1 %call
}

; Function Attrs: mustprogress nounwind uwtable
define linkonce_odr hidden noundef zeroext i1 @_ZNK4cvc58internal8DenseSet5emptyEv(ptr noundef nonnull align 8 dereferenceable(88) %this) #6 comdat align 2 {
entry:
  %this.addr = alloca ptr, align 8
  store ptr %this, ptr %this.addr, align 8
  %this1 = load ptr, ptr %this.addr, align 8
  %d_map = getelementptr inbounds %"class.cvc5::internal::DenseSet", ptr %this1, i32 0, i32 0
  %call = call noundef zeroext i1 @_ZNK4cvc58internal8DenseMapIbE5emptyEv(ptr noundef nonnull align 8 dereferenceable(88) %d_map)
  ret i1 %call
}

; Function Attrs: mustprogress uwtable
define hidden noundef zeroext i1 @_ZNK4cvc58internal6theory5arith6linear26FCSimplexDecisionProcedure13debugDualLikeENS3_18WitnessImprovementERSojj(ptr noundef nonnull align 8 dereferenceable(648) %this, i32 noundef %w, ptr noundef nonnull align 8 dereferenceable(8) %out, i32 noundef %prevFocusSize, i32 noundef %prevErrorSize) #4 align 2 {
entry:
  %retval = alloca i1, align 1
  %this.addr = alloca ptr, align 8
  %w.addr = alloca i32, align 4
  %out.addr = alloca ptr, align 8
  %prevFocusSize.addr = alloca i32, align 4
  %prevErrorSize.addr = alloca i32, align 4
  store ptr %this, ptr %this.addr, align 8
  store i32 %w, ptr %w.addr, align 4
  store ptr %out, ptr %out.addr, align 8
  store i32 %prevFocusSize, ptr %prevFocusSize.addr, align 4
  store i32 %prevErrorSize, ptr %prevErrorSize.addr, align 4
  %this1 = load ptr, ptr %this.addr, align 8
  %0 = load ptr, ptr %out.addr, align 8
  %call = call noundef nonnull align 8 dereferenceable(8) ptr @_ZStlsISt11char_traitsIcEERSt13basic_ostreamIcT_ES5_PKc(ptr noundef nonnull align 8 dereferenceable(8) %0, ptr noundef @.str.49)
  %1 = load i32, ptr %w.addr, align 4
  switch i32 %1, label %sw.epilog [
    i32 0, label %sw.bb
    i32 1, label %sw.bb5
    i32 2, label %sw.bb10
    i32 3, label %sw.bb15
    i32 5, label %sw.bb21
    i32 6, label %sw.bb24
    i32 7, label %sw.bb27
    i32 4, label %sw.bb31
  ]

sw.bb:                                            ; preds = %entry
  %2 = load ptr, ptr %out.addr, align 8
  %call2 = call noundef nonnull align 8 dereferenceable(8) ptr @_ZStlsISt11char_traitsIcEERSt13basic_ostreamIcT_ES5_PKc(ptr noundef nonnull align 8 dereferenceable(8) %2, ptr noundef @.str.50)
  %call3 = call noundef nonnull align 8 dereferenceable(8) ptr @_ZNSolsEPFRSoS_E(ptr noundef nonnull align 8 dereferenceable(8) %call2, ptr noundef @_ZSt4endlIcSt11char_traitsIcEERSt13basic_ostreamIT_T0_ES6_)
  %d_conflictVariables = getelementptr inbounds %"class.cvc5::internal::theory::arith::linear::SimplexDecisionProcedure", ptr %this1, i32 0, i32 2
  %call4 = call noundef zeroext i1 @_ZNK4cvc58internal8DenseSet5emptyEv(ptr noundef nonnull align 8 dereferenceable(88) %d_conflictVariables)
  %lnot = xor i1 %call4, true
  store i1 %lnot, ptr %retval, align 1
  br label %return

sw.bb5:                                           ; preds = %entry
  %3 = load ptr, ptr %out.addr, align 8
  %call6 = call noundef nonnull align 8 dereferenceable(8) ptr @_ZStlsISt11char_traitsIcEERSt13basic_ostreamIcT_ES5_PKc(ptr noundef nonnull align 8 dereferenceable(8) %3, ptr noundef @.str.27)
  %4 = load i32, ptr %prevErrorSize.addr, align 4
  %d_errorSize = getelementptr inbounds %"class.cvc5::internal::theory::arith::linear::SimplexDecisionProcedure", ptr %this1, i32 0, i32 12
  %5 = load i32, ptr %d_errorSize, align 8
  %sub = sub i32 %4, %5
  %call7 = call noundef nonnull align 8 dereferenceable(8) ptr @_ZNSolsEj(ptr noundef nonnull align 8 dereferenceable(8) %call6, i32 noundef %sub)
  %call8 = call noundef nonnull align 8 dereferenceable(8) ptr @_ZNSolsEPFRSoS_E(ptr noundef nonnull align 8 dereferenceable(8) %call7, ptr noundef @_ZSt4endlIcSt11char_traitsIcEERSt13basic_ostreamIT_T0_ES6_)
  %d_errorSize9 = getelementptr inbounds %"class.cvc5::internal::theory::arith::linear::SimplexDecisionProcedure", ptr %this1, i32 0, i32 12
  %6 = load i32, ptr %d_errorSize9, align 8
  %7 = load i32, ptr %prevErrorSize.addr, align 4
  %cmp = icmp ult i32 %6, %7
  store i1 %cmp, ptr %retval, align 1
  br label %return

sw.bb10:                                          ; preds = %entry
  %8 = load ptr, ptr %out.addr, align 8
  %call11 = call noundef nonnull align 8 dereferenceable(8) ptr @_ZStlsISt11char_traitsIcEERSt13basic_ostreamIcT_ES5_PKc(ptr noundef nonnull align 8 dereferenceable(8) %8, ptr noundef @.str.51)
  %call12 = call noundef nonnull align 8 dereferenceable(8) ptr @_ZNSolsEPFRSoS_E(ptr noundef nonnull align 8 dereferenceable(8) %call11, ptr noundef @_ZSt4endlIcSt11char_traitsIcEERSt13basic_ostreamIT_T0_ES6_)
  %d_errorSize13 = getelementptr inbounds %"class.cvc5::internal::theory::arith::linear::SimplexDecisionProcedure", ptr %this1, i32 0, i32 12
  %9 = load i32, ptr %d_errorSize13, align 8
  %10 = load i32, ptr %prevErrorSize.addr, align 4
  %cmp14 = icmp eq i32 %9, %10
  store i1 %cmp14, ptr %retval, align 1
  br label %return

sw.bb15:                                          ; preds = %entry
  %11 = load ptr, ptr %out.addr, align 8
  %call16 = call noundef nonnull align 8 dereferenceable(8) ptr @_ZStlsISt11char_traitsIcEERSt13basic_ostreamIcT_ES5_PKc(ptr noundef nonnull align 8 dereferenceable(8) %11, ptr noundef @.str.52)
  %call17 = call noundef nonnull align 8 dereferenceable(8) ptr @_ZNSolsEPFRSoS_E(ptr noundef nonnull align 8 dereferenceable(8) %call16, ptr noundef @_ZSt4endlIcSt11char_traitsIcEERSt13basic_ostreamIT_T0_ES6_)
  %d_errorSize18 = getelementptr inbounds %"class.cvc5::internal::theory::arith::linear::SimplexDecisionProcedure", ptr %this1, i32 0, i32 12
  %12 = load i32, ptr %d_errorSize18, align 8
  %13 = load i32, ptr %prevErrorSize.addr, align 4
  %cmp19 = icmp eq i32 %12, %13
  br i1 %cmp19, label %land.rhs, label %land.end

land.rhs:                                         ; preds = %sw.bb15
  %14 = load i32, ptr %prevFocusSize.addr, align 4
  %d_focusSize = getelementptr inbounds %"class.cvc5::internal::theory::arith::linear::FCSimplexDecisionProcedure", ptr %this1, i32 0, i32 2
  %15 = load i32, ptr %d_focusSize, align 8
  %cmp20 = icmp ugt i32 %14, %15
  br label %land.end

land.end:                                         ; preds = %land.rhs, %sw.bb15
  %16 = phi i1 [ false, %sw.bb15 ], [ %cmp20, %land.rhs ]
  store i1 %16, ptr %retval, align 1
  br label %return

sw.bb21:                                          ; preds = %entry
  %17 = load ptr, ptr %out.addr, align 8
  %call22 = call noundef nonnull align 8 dereferenceable(8) ptr @_ZStlsISt11char_traitsIcEERSt13basic_ostreamIcT_ES5_PKc(ptr noundef nonnull align 8 dereferenceable(8) %17, ptr noundef @.str.53)
  %call23 = call noundef nonnull align 8 dereferenceable(8) ptr @_ZNSolsEPFRSoS_E(ptr noundef nonnull align 8 dereferenceable(8) %call22, ptr noundef @_ZSt4endlIcSt11char_traitsIcEERSt13basic_ostreamIT_T0_ES6_)
  store i1 true, ptr %retval, align 1
  br label %return

sw.bb24:                                          ; preds = %entry
  %18 = load ptr, ptr %out.addr, align 8
  %call25 = call noundef nonnull align 8 dereferenceable(8) ptr @_ZStlsISt11char_traitsIcEERSt13basic_ostreamIcT_ES5_PKc(ptr noundef nonnull align 8 dereferenceable(8) %18, ptr noundef @.str.54)
  %call26 = call noundef nonnull align 8 dereferenceable(8) ptr @_ZNSolsEPFRSoS_E(ptr noundef nonnull align 8 dereferenceable(8) %call25, ptr noundef @_ZSt4endlIcSt11char_traitsIcEERSt13basic_ostreamIT_T0_ES6_)
  store i1 true, ptr %retval, align 1
  br label %return

sw.bb27:                                          ; preds = %entry
  %19 = load ptr, ptr %out.addr, align 8
  %call28 = call noundef nonnull align 8 dereferenceable(8) ptr @_ZStlsISt11char_traitsIcEERSt13basic_ostreamIcT_ES5_PKc(ptr noundef nonnull align 8 dereferenceable(8) %19, ptr noundef @.str.55)
  %call29 = call noundef nonnull align 8 dereferenceable(8) ptr @_ZNSolsEPFRSoS_E(ptr noundef nonnull align 8 dereferenceable(8) %call28, ptr noundef @_ZSt4endlIcSt11char_traitsIcEERSt13basic_ostreamIT_T0_ES6_)
  %20 = load i32, ptr %prevFocusSize.addr, align 4
  %cmp30 = icmp eq i32 %20, 0
  store i1 %cmp30, ptr %retval, align 1
  br label %return

sw.bb31:                                          ; preds = %entry
  store i1 false, ptr %retval, align 1
  br label %return

sw.epilog:                                        ; preds = %entry
  store i1 false, ptr %retval, align 1
  br label %return

return:                                           ; preds = %sw.epilog, %sw.bb31, %sw.bb27, %sw.bb24, %sw.bb21, %land.end, %sw.bb10, %sw.bb5, %sw.bb
  %21 = load i1, ptr %retval, align 1
  ret i1 %21
}