; Function Attrs: mustprogress uwtable
define hidden noundef zeroext i1 @_ZNK4cvc58internal6theory5arith6linear26FCSimplexDecisionProcedure13debugDualLikeENS3_18WitnessImprovementERSojj(ptr nocapture noundef nonnull readonly align 8 dereferenceable(648) %this, i32 noundef %w, ptr noundef nonnull align 8 dereferenceable(8) %out, i32 noundef %prevFocusSize, i32 noundef %prevErrorSize) local_unnamed_addr #3 align 2 {
entry:
  %call = tail call noundef nonnull align 8 dereferenceable(8) ptr @_ZStlsISt11char_traitsIcEERSt13basic_ostreamIcT_ES5_PKc(ptr noundef nonnull align 8 dereferenceable(8) %out, ptr noundef nonnull @.str.49)
  switch i32 %w, label %return [
    i32 0, label %sw.bb
    i32 1, label %sw.bb5
    i32 2, label %sw.bb10
    i32 3, label %sw.bb15
    i32 5, label %sw.bb21
    i32 6, label %sw.bb24
    i32 7, label %sw.bb27
  ]

sw.bb:                                            ; preds = %entry
  %call2 = tail call noundef nonnull align 8 dereferenceable(8) ptr @_ZStlsISt11char_traitsIcEERSt13basic_ostreamIcT_ES5_PKc(ptr noundef nonnull align 8 dereferenceable(8) %out, ptr noundef nonnull @.str.50)
  %call3 = tail call noundef nonnull align 8 dereferenceable(8) ptr @_ZNSolsEPFRSoS_E(ptr noundef nonnull align 8 dereferenceable(8) %call2, ptr noundef nonnull @_ZSt4endlIcSt11char_traitsIcEERSt13basic_ostreamIT_T0_ES6_)
  %d_conflictVariables = getelementptr inbounds i8, ptr %this, i64 24
  %0 = load ptr, ptr %d_conflictVariables, align 8
  %_M_finish.i.i.i.i = getelementptr inbounds i8, ptr %this, i64 32
  %1 = load ptr, ptr %_M_finish.i.i.i.i, align 8
  %cmp.i.i.i.i = icmp ne ptr %0, %1
  br label %return

sw.bb5:                                           ; preds = %entry
  %call6 = tail call noundef nonnull align 8 dereferenceable(8) ptr @_ZStlsISt11char_traitsIcEERSt13basic_ostreamIcT_ES5_PKc(ptr noundef nonnull align 8 dereferenceable(8) %out, ptr noundef nonnull @.str.27)
  %d_errorSize = getelementptr inbounds i8, ptr %this, i64 192
  %2 = load i32, ptr %d_errorSize, align 8
  %sub = sub i32 %prevErrorSize, %2
  %call7 = tail call noundef nonnull align 8 dereferenceable(8) ptr @_ZNSolsEj(ptr noundef nonnull align 8 dereferenceable(8) %call6, i32 noundef %sub)
  %call8 = tail call noundef nonnull align 8 dereferenceable(8) ptr @_ZNSolsEPFRSoS_E(ptr noundef nonnull align 8 dereferenceable(8) %call7, ptr noundef nonnull @_ZSt4endlIcSt11char_traitsIcEERSt13basic_ostreamIT_T0_ES6_)
  %3 = load i32, ptr %d_errorSize, align 8
  %cmp = icmp ult i32 %3, %prevErrorSize
  br label %return

sw.bb10:                                          ; preds = %entry
  %call11 = tail call noundef nonnull align 8 dereferenceable(8) ptr @_ZStlsISt11char_traitsIcEERSt13basic_ostreamIcT_ES5_PKc(ptr noundef nonnull align 8 dereferenceable(8) %out, ptr noundef nonnull @.str.51)
  %call12 = tail call noundef nonnull align 8 dereferenceable(8) ptr @_ZNSolsEPFRSoS_E(ptr noundef nonnull align 8 dereferenceable(8) %call11, ptr noundef nonnull @_ZSt4endlIcSt11char_traitsIcEERSt13basic_ostreamIT_T0_ES6_)
  %d_errorSize13 = getelementptr inbounds i8, ptr %this, i64 192
  %4 = load i32, ptr %d_errorSize13, align 8
  %cmp14 = icmp eq i32 %4, %prevErrorSize
  br label %return

sw.bb15:                                          ; preds = %entry
  %call16 = tail call noundef nonnull align 8 dereferenceable(8) ptr @_ZStlsISt11char_traitsIcEERSt13basic_ostreamIcT_ES5_PKc(ptr noundef nonnull align 8 dereferenceable(8) %out, ptr noundef nonnull @.str.52)
  %call17 = tail call noundef nonnull align 8 dereferenceable(8) ptr @_ZNSolsEPFRSoS_E(ptr noundef nonnull align 8 dereferenceable(8) %call16, ptr noundef nonnull @_ZSt4endlIcSt11char_traitsIcEERSt13basic_ostreamIT_T0_ES6_)
  %d_errorSize18 = getelementptr inbounds i8, ptr %this, i64 192
  %5 = load i32, ptr %d_errorSize18, align 8
  %cmp19 = icmp eq i32 %5, %prevErrorSize
  %d_focusSize = getelementptr inbounds i8, ptr %this, i64 376
  %6 = load i32, ptr %d_focusSize, align 8
  %cmp20 = icmp ult i32 %6, %prevFocusSize
  %7 = select i1 %cmp19, i1 %cmp20, i1 false
  br label %return

sw.bb21:                                          ; preds = %entry
  %call22 = tail call noundef nonnull align 8 dereferenceable(8) ptr @_ZStlsISt11char_traitsIcEERSt13basic_ostreamIcT_ES5_PKc(ptr noundef nonnull align 8 dereferenceable(8) %out, ptr noundef nonnull @.str.53)
  %call23 = tail call noundef nonnull align 8 dereferenceable(8) ptr @_ZNSolsEPFRSoS_E(ptr noundef nonnull align 8 dereferenceable(8) %call22, ptr noundef nonnull @_ZSt4endlIcSt11char_traitsIcEERSt13basic_ostreamIT_T0_ES6_)
  br label %return

sw.bb24:                                          ; preds = %entry
  %call25 = tail call noundef nonnull align 8 dereferenceable(8) ptr @_ZStlsISt11char_traitsIcEERSt13basic_ostreamIcT_ES5_PKc(ptr noundef nonnull align 8 dereferenceable(8) %out, ptr noundef nonnull @.str.54)
  %call26 = tail call noundef nonnull align 8 dereferenceable(8) ptr @_ZNSolsEPFRSoS_E(ptr noundef nonnull align 8 dereferenceable(8) %call25, ptr noundef nonnull @_ZSt4endlIcSt11char_traitsIcEERSt13basic_ostreamIT_T0_ES6_)
  br label %return

sw.bb27:                                          ; preds = %entry
  %call28 = tail call noundef nonnull align 8 dereferenceable(8) ptr @_ZStlsISt11char_traitsIcEERSt13basic_ostreamIcT_ES5_PKc(ptr noundef nonnull align 8 dereferenceable(8) %out, ptr noundef nonnull @.str.55)
  %call29 = tail call noundef nonnull align 8 dereferenceable(8) ptr @_ZNSolsEPFRSoS_E(ptr noundef nonnull align 8 dereferenceable(8) %call28, ptr noundef nonnull @_ZSt4endlIcSt11char_traitsIcEERSt13basic_ostreamIT_T0_ES6_)
  %cmp30 = icmp eq i32 %prevFocusSize, 0
  br label %return

return:                                           ; preds = %entry, %sw.bb27, %sw.bb24, %sw.bb21, %sw.bb15, %sw.bb10, %sw.bb5, %sw.bb
  %retval.0 = phi i1 [ %cmp30, %sw.bb27 ], [ true, %sw.bb24 ], [ true, %sw.bb21 ], [ %7, %sw.bb15 ], [ %cmp14, %sw.bb10 ], [ %cmp, %sw.bb5 ], [ %cmp.i.i.i.i, %sw.bb ], [ false, %entry ]
  ret i1 %retval.0
}